target datalayout = "e-m:e-p270:32:32-p271:32:32-p272:64:64-i64:64-i128:128-f80:128-n8:16:32:64-S128"
target triple = "x86_64-pc-linux-gnu"

%struct._object = type { %union.anon, ptr }
%union.anon = type { i64 }
%struct.lzma_filter = type { i64, ptr }
%struct.anon = type { i32, i32 }

@PyExc_ValueError = external global ptr, align 8
@.str.86 = private unnamed_addr constant [52 x i8] c"Too many filters - liblzma supports a maximum of %d\00", align 1

; Function Attrs: alwaysinline nounwind uwtable
define internal i32 @_Py_IsImmortal(ptr noundef %0) #6 {
  %2 = alloca ptr, align 8
  store ptr %0, ptr %2, align 8, !tbaa !3
  %3 = load ptr, ptr %2, align 8, !tbaa !3
  %4 = getelementptr inbounds nuw %struct._object, ptr %3, i32 0, i32 0
  %5 = getelementptr inbounds nuw %struct.anon, ptr %4, i32 0, i32 0
  %6 = load i32, ptr %5, align 8, !tbaa !31
  %7 = icmp slt i32 %6, 0
  %8 = zext i1 %7 to i32
  ret i32 %8
}

; Function Attrs: alwaysinline nounwind uwtable
define internal void @Py_DECREF(ptr noundef %0) #6 {
  %2 = alloca ptr, align 8
  store ptr %0, ptr %2, align 8, !tbaa !3
  %3 = load ptr, ptr %2, align 8, !tbaa !3
  %4 = call i32 @_Py_IsImmortal(ptr noundef %3)
  %5 = icmp ne i32 %4, 0
  br i1 %5, label %6, label %7

6:                                                ; preds = %1
  br label %16

7:                                                ; preds = %1
  %8 = load ptr, ptr %2, align 8, !tbaa !3
  %9 = getelementptr inbounds nuw %struct._object, ptr %8, i32 0, i32 0
  %10 = getelementptr inbounds nuw %struct.anon, ptr %9, i32 0, i32 0
  %11 = load i32, ptr %10, align 8, !tbaa !31
  %12 = add i32 %11, -1
  store i32 %12, ptr %10, align 8, !tbaa !31
  %13 = icmp eq i32 %12, 0
  br i1 %13, label %14, label %16

14:                                               ; preds = %7
  %15 = load ptr, ptr %2, align 8, !tbaa !3
  call void @_Py_Dealloc(ptr noundef %15)
  br label %16

16:                                               ; preds = %6, %14, %7
  ret void
}

; Function Attrs: nounwind uwtable
define internal void @free_filter_chain(ptr noundef %0) #0 {
  %2 = alloca ptr, align 8
  %3 = alloca i32, align 4
  store ptr %0, ptr %2, align 8, !tbaa !8
  call void @llvm.lifetime.start.p0(i64 4, ptr %3) #9
  store i32 0, ptr %3, align 4, !tbaa !12
  br label %4

4:                                                ; preds = %20, %1
  %5 = load ptr, ptr %2, align 8, !tbaa !8
  %6 = load i32, ptr %3, align 4, !tbaa !12
  %7 = sext i32 %6 to i64
  %8 = getelementptr %struct.lzma_filter, ptr %5, i64 %7
  %9 = getelementptr inbounds nuw %struct.lzma_filter, ptr %8, i32 0, i32 0
  %10 = load i64, ptr %9, align 8, !tbaa !22
  %11 = icmp ne i64 %10, -1
  br i1 %11, label %13, label %12

12:                                               ; preds = %4
  call void @llvm.lifetime.end.p0(i64 4, ptr %3) #9
  br label %23

13:                                               ; preds = %4
  %14 = load ptr, ptr %2, align 8, !tbaa !8
  %15 = load i32, ptr %3, align 4, !tbaa !12
  %16 = sext i32 %15 to i64
  %17 = getelementptr %struct.lzma_filter, ptr %14, i64 %16
  %18 = getelementptr inbounds nuw %struct.lzma_filter, ptr %17, i32 0, i32 1
  %19 = load ptr, ptr %18, align 8, !tbaa !25
  call void @PyMem_Free(ptr noundef %19)
  br label %20

20:                                               ; preds = %13
  %21 = load i32, ptr %3, align 4, !tbaa !12
  %22 = add i32 %21, 1
  store i32 %22, ptr %3, align 4, !tbaa !12
  br label %4, !llvm.loop !85

23:                                               ; preds = %12
  ret void
}

; Function Attrs: inlinehint nounwind uwtable
define internal void @Py_XDECREF(ptr noundef %0) #5 {
  %2 = alloca ptr, align 8
  store ptr %0, ptr %2, align 8, !tbaa !3
  %3 = load ptr, ptr %2, align 8, !tbaa !3
  %4 = icmp ne ptr %3, null
  br i1 %4, label %5, label %7

5:                                                ; preds = %1
  %6 = load ptr, ptr %2, align 8, !tbaa !3
  call void @Py_DECREF(ptr noundef %6)
  br label %7

7:                                                ; preds = %5, %1
  ret void
}

; Function Attrs: nounwind uwtable
define internal i32 @parse_filter_chain_spec(ptr noundef %0, ptr noundef %1, ptr noundef %2) #0 {
  %4 = alloca i32, align 4
  %5 = alloca ptr, align 8
  %6 = alloca ptr, align 8
  %7 = alloca ptr, align 8
  %8 = alloca i64, align 8
  %9 = alloca i64, align 8
  %10 = alloca i32, align 4
  %11 = alloca i32, align 4
  %12 = alloca ptr, align 8
  store ptr %0, ptr %5, align 8, !tbaa !8
  store ptr %1, ptr %6, align 8, !tbaa !8
  store ptr %2, ptr %7, align 8, !tbaa !3
  call void @llvm.lifetime.start.p0(i64 8, ptr %8) #9
  call void @llvm.lifetime.start.p0(i64 8, ptr %9) #9
  %13 = load ptr, ptr %7, align 8, !tbaa !3
  %14 = call i64 @PySequence_Size(ptr noundef %13)
  store i64 %14, ptr %9, align 8, !tbaa !26
  %15 = load i64, ptr %9, align 8, !tbaa !26
  %16 = icmp eq i64 %15, -1
  br i1 %16, label %17, label %18

17:                                               ; preds = %3
  store i32 -1, ptr %4, align 4
  store i32 1, ptr %10, align 4
  br label %66

18:                                               ; preds = %3
  %19 = load i64, ptr %9, align 8, !tbaa !26
  %20 = icmp sgt i64 %19, 4
  br i1 %20, label %21, label %24

21:                                               ; preds = %18
  %22 = load ptr, ptr @PyExc_ValueError, align 8, !tbaa !3
  %23 = call ptr (ptr, ptr, ...) @PyErr_Format(ptr noundef %22, ptr noundef @.str.86, i32 noundef 4)
  store i32 -1, ptr %4, align 4
  store i32 1, ptr %10, align 4
  br label %66

24:                                               ; preds = %18
  store i64 0, ptr %8, align 8, !tbaa !26
  br label %25

25:                                               ; preds = %58, %24
  %26 = load i64, ptr %8, align 8, !tbaa !26
  %27 = load i64, ptr %9, align 8, !tbaa !26
  %28 = icmp slt i64 %26, %27
  br i1 %28, label %29, label %61

29:                                               ; preds = %25
  call void @llvm.lifetime.start.p0(i64 4, ptr %11) #9
  store i32 1, ptr %11, align 4, !tbaa !12
  call void @llvm.lifetime.start.p0(i64 8, ptr %12) #9
  %30 = load ptr, ptr %7, align 8, !tbaa !3
  %31 = load i64, ptr %8, align 8, !tbaa !26
  %32 = call ptr @PySequence_GetItem(ptr noundef %30, i64 noundef %31)
  store ptr %32, ptr %12, align 8, !tbaa !3
  %33 = load ptr, ptr %12, align 8, !tbaa !3
  %34 = icmp eq ptr %33, null
  br i1 %34, label %43, label %35

35:                                               ; preds = %29
  %36 = load ptr, ptr %5, align 8, !tbaa !8
  %37 = load ptr, ptr %12, align 8, !tbaa !3
  %38 = load ptr, ptr %6, align 8, !tbaa !8
  %39 = load i64, ptr %8, align 8, !tbaa !26
  %40 = getelementptr %struct.lzma_filter, ptr %38, i64 %39
  %41 = call i32 @lzma_filter_converter(ptr noundef %36, ptr noundef %37, ptr noundef %40)
  %42 = icmp ne i32 %41, 0
  br i1 %42, label %44, label %43

43:                                               ; preds = %35, %29
  store i32 0, ptr %11, align 4, !tbaa !12
  br label %44

44:                                               ; preds = %43, %35
  %45 = load ptr, ptr %12, align 8, !tbaa !3
  call void @Py_XDECREF(ptr noundef %45)
  %46 = load i32, ptr %11, align 4, !tbaa !12
  %47 = icmp ne i32 %46, 0
  br i1 %47, label %54, label %48

48:                                               ; preds = %44
  %49 = load ptr, ptr %6, align 8, !tbaa !8
  %50 = load i64, ptr %8, align 8, !tbaa !26
  %51 = getelementptr %struct.lzma_filter, ptr %49, i64 %50
  %52 = getelementptr inbounds nuw %struct.lzma_filter, ptr %51, i32 0, i32 0
  store i64 -1, ptr %52, align 8, !tbaa !22
  %53 = load ptr, ptr %6, align 8, !tbaa !8
  call void @free_filter_chain(ptr noundef %53)
  store i32 -1, ptr %4, align 4
  store i32 1, ptr %10, align 4
  br label %55

54:                                               ; preds = %44
  store i32 0, ptr %10, align 4
  br label %55

55:                                               ; preds = %54, %48
  call void @llvm.lifetime.end.p0(i64 8, ptr %12) #9
  call void @llvm.lifetime.end.p0(i64 4, ptr %11) #9
  %56 = load i32, ptr %10, align 4
  switch i32 %56, label %66 [
    i32 0, label %57
  ]

57:                                               ; preds = %55
  br label %58

58:                                               ; preds = %57
  %59 = load i64, ptr %8, align 8, !tbaa !26
  %60 = add i64 %59, 1
  store i64 %60, ptr %8, align 8, !tbaa !26
  br label %25, !llvm.loop !84

61:                                               ; preds = %25
  %62 = load ptr, ptr %6, align 8, !tbaa !8
  %63 = load i64, ptr %9, align 8, !tbaa !26
  %64 = getelementptr %struct.lzma_filter, ptr %62, i64 %63
  %65 = getelementptr inbounds nuw %struct.lzma_filter, ptr %64, i32 0, i32 0
  store i64 -1, ptr %65, align 8, !tbaa !22
  store i32 0, ptr %4, align 4
  store i32 1, ptr %10, align 4
  br label %66

66:                                               ; preds = %61, %55, %21, %17
  call void @llvm.lifetime.end.p0(i64 8, ptr %9) #9
  call void @llvm.lifetime.end.p0(i64 8, ptr %8) #9
  %67 = load i32, ptr %4, align 4
  ret i32 %67
}