; Function Attrs: nounwind uwtable
define internal fastcc range(i32 -1, 1) i32 @parse_filter_chain_spec(ptr noundef readonly captures(none) %0, ptr noundef nonnull captures(none) %1, ptr noundef %2) unnamed_addr #0 {
  %4 = tail call i64 @PySequence_Size(ptr noundef %2) #10
  %5 = icmp eq i64 %4, -1
  br i1 %5, label %free_filter_chain.exit, label %6

6:                                                ; preds = %3
  %7 = icmp sgt i64 %4, 4
  br i1 %7, label %9, label %.preheader

.preheader:                                       ; preds = %6
  %8 = icmp sgt i64 %4, 0
  br i1 %8, label %.lr.ph, label %._crit_edge

9:                                                ; preds = %6
  %10 = load ptr, ptr @PyExc_ValueError, align 8, !tbaa !15
  %11 = tail call ptr (ptr, ptr, ...) @PyErr_Format(ptr noundef %10, ptr noundef nonnull @.str.86, i32 noundef 4) #10
  br label %free_filter_chain.exit

.lr.ph:                                           ; preds = %.preheader, %Py_XDECREF.exit
  %.02339 = phi i64 [ %22, %Py_XDECREF.exit ], [ 0, %.preheader ]
  %12 = tail call ptr @PySequence_GetItem(ptr noundef %2, i64 noundef %.02339) #10
  %13 = icmp eq ptr %12, null
  br i1 %13, label %Py_XDECREF.exit33, label %14

14:                                               ; preds = %.lr.ph
  %15 = getelementptr %struct.lzma_filter, ptr %1, i64 %.02339
  %16 = tail call fastcc i32 @lzma_filter_converter(ptr noundef %0, ptr noundef nonnull %12, ptr noundef %15)
  %.not = icmp eq i32 %16, 0
  %17 = load i32, ptr %12, align 8, !tbaa !14
  %.not.i.i32 = icmp sgt i32 %17, -1
  br i1 %.not, label %.split25, label %.split

.split:                                           ; preds = %14
  br i1 %.not.i.i32, label %18, label %Py_XDECREF.exit

18:                                               ; preds = %.split
  %19 = add nsw i32 %17, -1
  store i32 %19, ptr %12, align 8, !tbaa !14
  %20 = icmp eq i32 %19, 0
  br i1 %20, label %21, label %Py_XDECREF.exit

21:                                               ; preds = %18
  tail call void @_Py_Dealloc(ptr noundef nonnull %12) #10
  br label %Py_XDECREF.exit

Py_XDECREF.exit:                                  ; preds = %.split, %18, %21
  %22 = add nuw nsw i64 %.02339, 1
  %exitcond.not = icmp eq i64 %22, %4
  br i1 %exitcond.not, label %._crit_edge, label %.lr.ph, !llvm.loop !74

.split25:                                         ; preds = %14
  br i1 %.not.i.i32, label %23, label %Py_XDECREF.exit33

23:                                               ; preds = %.split25
  %24 = add nsw i32 %17, -1
  store i32 %24, ptr %12, align 8, !tbaa !14
  %25 = icmp eq i32 %24, 0
  br i1 %25, label %26, label %Py_XDECREF.exit33

26:                                               ; preds = %23
  tail call void @_Py_Dealloc(ptr noundef nonnull %12) #10
  br label %Py_XDECREF.exit33

Py_XDECREF.exit33:                                ; preds = %.lr.ph, %.split25, %23, %26
  %27 = getelementptr %struct.lzma_filter, ptr %1, i64 %.02339
  store i64 -1, ptr %27, align 8, !tbaa !16
  %28 = load i64, ptr %1, align 8, !tbaa !16
  %.not4.i = icmp eq i64 %28, -1
  br i1 %.not4.i, label %free_filter_chain.exit, label %.lr.ph.i

.lr.ph.i:                                         ; preds = %Py_XDECREF.exit33, %.lr.ph.i
  %29 = phi ptr [ %34, %.lr.ph.i ], [ %1, %Py_XDECREF.exit33 ]
  %.05.i = phi i32 [ %32, %.lr.ph.i ], [ 0, %Py_XDECREF.exit33 ]
  %30 = getelementptr inbounds nuw i8, ptr %29, i64 8
  %31 = load ptr, ptr %30, align 8, !tbaa !21
  tail call void @PyMem_Free(ptr noundef %31) #10
  %32 = add i32 %.05.i, 1
  %33 = sext i32 %32 to i64
  %34 = getelementptr %struct.lzma_filter, ptr %1, i64 %33
  %35 = load i64, ptr %34, align 8, !tbaa !16
  %.not.i34 = icmp eq i64 %35, -1
  br i1 %.not.i34, label %free_filter_chain.exit, label %.lr.ph.i, !llvm.loop !73

._crit_edge:                                      ; preds = %Py_XDECREF.exit, %.preheader
  %36 = getelementptr %struct.lzma_filter, ptr %1, i64 %4
  store i64 -1, ptr %36, align 8, !tbaa !16
  br label %free_filter_chain.exit

free_filter_chain.exit:                           ; preds = %.lr.ph.i, %Py_XDECREF.exit33, %3, %._crit_edge, %9
  %.0 = phi i32 [ -1, %9 ], [ 0, %._crit_edge ], [ -1, %3 ], [ -1, %Py_XDECREF.exit33 ], [ -1, %.lr.ph.i ]
  ret i32 %.0
}